target datalayout = "e-m:e-p270:32:32-p271:32:32-p272:64:64-i64:64-i128:128-f80:128-n8:16:32:64-S128"
target triple = "x86_64-pc-linux-gnu"

%"class.ade::TypedMetadata" = type { ptr, ptr }
%"class.ade::ConstTypedGraph" = type { i64, %"struct.std::array" }
%"struct.std::array" = type { [23 x %"class.ade::details::MetadataId"] }
%"class.ade::details::MetadataId" = type { ptr }
%"struct.std::__detail::_Hash_node_base" = type { ptr }
%"struct.std::__detail::_Prime_rehash_policy" = type { float, i64 }
%"class.cv::gimpl::DataObjectCounter" = type { %"class.std::unordered_map" }
%"class.std::unordered_map" = type { %"class.std::_Hashtable" }
%"class.std::_Hashtable" = type { ptr, i64, %"struct.std::__detail::_Hash_node_base", i64, %"struct.std::__detail::_Prime_rehash_policy", ptr }

; Function Attrs: mustprogress nounwind uwtable
define linkonce_odr hidden void @_ZNSt15__new_allocatorINSt8__detail10_Hash_nodeISt4pairIKN2cv6GShapeEiELb1EEEEC2Ev(ptr noundef nonnull align 1 dereferenceable(1) %0) unnamed_addr #8 comdat align 2 {
  %2 = alloca ptr, align 8
  store ptr %0, ptr %2, align 8, !tbaa !423
  ret void
}

; Function Attrs: mustprogress nounwind uwtable
define linkonce_odr hidden void @_ZNSaINSt8__detail10_Hash_nodeISt4pairIKN2cv6GShapeEiELb1EEEEC2Ev(ptr noundef nonnull align 1 dereferenceable(1) %0) unnamed_addr #8 comdat align 2 {
  %2 = alloca ptr, align 8
  store ptr %0, ptr %2, align 8, !tbaa !421
  %3 = load ptr, ptr %2, align 8
  call void @_ZNSt15__new_allocatorINSt8__detail10_Hash_nodeISt4pairIKN2cv6GShapeEiELb1EEEEC2Ev(ptr noundef nonnull align 1 dereferenceable(1) %3) #3
  ret void
}

; Function Attrs: mustprogress nounwind uwtable
define linkonce_odr hidden void @_ZNSt8__detail21_Hashtable_ebo_helperILi1ESt4hashIN2cv6GShapeEELb1EEC2Ev(ptr noundef nonnull align 1 dereferenceable(1) %0) unnamed_addr #8 comdat align 2 {
  %2 = alloca ptr, align 8
  store ptr %0, ptr %2, align 8, !tbaa !391
  ret void
}

; Function Attrs: mustprogress nounwind uwtable
define linkonce_odr hidden void @_ZNSt8__detail21_Hashtable_ebo_helperILi0ESaINS_10_Hash_nodeISt4pairIKN2cv6GShapeEiELb1EEEELb1EEC2Ev(ptr noundef nonnull align 1 dereferenceable(1) %0) unnamed_addr #8 comdat align 2 {
  %2 = alloca ptr, align 8
  store ptr %0, ptr %2, align 8, !tbaa !425
  %3 = load ptr, ptr %2, align 8
  call void @_ZNSaINSt8__detail10_Hash_nodeISt4pairIKN2cv6GShapeEiELb1EEEEC2Ev(ptr noundef nonnull align 1 dereferenceable(1) %3) #3
  ret void
}

; Function Attrs: mustprogress nounwind uwtable
define linkonce_odr hidden void @_ZNSt8__detail21_Hashtable_ebo_helperILi0ESt8equal_toIN2cv6GShapeEELb1EEC2Ev(ptr noundef nonnull align 1 dereferenceable(1) %0) unnamed_addr #8 comdat align 2 {
  %2 = alloca ptr, align 8
  store ptr %0, ptr %2, align 8, !tbaa !413
  ret void
}

; Function Attrs: mustprogress nounwind uwtable
define linkonce_odr hidden void @_ZNSt8__detail15_Hash_code_baseIN2cv6GShapeESt4pairIKS2_iENS_10_Select1stESt4hashIS2_ENS_18_Mod_range_hashingENS_20_Default_ranged_hashELb1EEC2Ev(ptr noundef nonnull align 1 dereferenceable(1) %0) unnamed_addr #8 comdat align 2 {
  %2 = alloca ptr, align 8
  store ptr %0, ptr %2, align 8, !tbaa !356
  %3 = load ptr, ptr %2, align 8
  call void @_ZNSt8__detail21_Hashtable_ebo_helperILi1ESt4hashIN2cv6GShapeEELb1EEC2Ev(ptr noundef nonnull align 1 dereferenceable(1) %3) #3
  ret void
}

; Function Attrs: mustprogress nounwind uwtable
define linkonce_odr hidden noundef nonnull align 8 dereferenceable(8) ptr @_ZNSt14__array_traitsIN3ade7details10MetadataIdELm23EE6_S_refERA23_KS2_m(ptr noundef nonnull align 8 dereferenceable(184) %0, i64 noundef %1) #8 comdat align 2 {
  %3 = alloca ptr, align 8
  %4 = alloca i64, align 8
  store ptr %0, ptr %3, align 8, !tbaa !592
  store i64 %1, ptr %4, align 8, !tbaa !92
  %5 = load ptr, ptr %3, align 8, !tbaa !592
  %6 = load i64, ptr %4, align 8, !tbaa !92
  %7 = getelementptr inbounds nuw [23 x %"class.ade::details::MetadataId"], ptr %5, i64 0, i64 %6
  ret ptr %7
}

; Function Attrs: mustprogress nounwind uwtable
define linkonce_odr hidden void @_ZNSt8__detail20_Prime_rehash_policyC2Ef(ptr noundef nonnull align 8 dereferenceable(16) %0, float noundef %1) unnamed_addr #8 comdat align 2 {
  %3 = alloca ptr, align 8
  %4 = alloca float, align 4
  store ptr %0, ptr %3, align 8, !tbaa !432
  store float %1, ptr %4, align 4, !tbaa !530
  %5 = load ptr, ptr %3, align 8
  %6 = getelementptr inbounds nuw %"struct.std::__detail::_Prime_rehash_policy", ptr %5, i32 0, i32 0
  %7 = load float, ptr %4, align 4, !tbaa !530
  store float %7, ptr %6, align 8, !tbaa !531
  %8 = getelementptr inbounds nuw %"struct.std::__detail::_Prime_rehash_policy", ptr %5, i32 0, i32 1
  store i64 0, ptr %8, align 8, !tbaa !434
  ret void
}

; Function Attrs: mustprogress nounwind uwtable
define linkonce_odr hidden void @_ZNSt8__detail15_Hash_node_baseC2Ev(ptr noundef nonnull align 8 dereferenceable(8) %0) unnamed_addr #8 comdat align 2 {
  %2 = alloca ptr, align 8
  store ptr %0, ptr %2, align 8, !tbaa !365
  %3 = load ptr, ptr %2, align 8
  %4 = getelementptr inbounds nuw %"struct.std::__detail::_Hash_node_base", ptr %3, i32 0, i32 0
  store ptr null, ptr %4, align 8, !tbaa !366
  ret void
}

; Function Attrs: mustprogress nounwind uwtable
define linkonce_odr hidden void @_ZNSt8__detail16_Hashtable_allocISaINS_10_Hash_nodeISt4pairIKN2cv6GShapeEiELb1EEEEEC2Ev(ptr noundef nonnull align 1 dereferenceable(1) %0) unnamed_addr #8 comdat align 2 {
  %2 = alloca ptr, align 8
  store ptr %0, ptr %2, align 8, !tbaa !373
  %3 = load ptr, ptr %2, align 8
  call void @_ZNSt8__detail21_Hashtable_ebo_helperILi0ESaINS_10_Hash_nodeISt4pairIKN2cv6GShapeEiELb1EEEELb1EEC2Ev(ptr noundef nonnull align 1 dereferenceable(1) %3) #3
  ret void
}

; Function Attrs: mustprogress nounwind uwtable
define linkonce_odr hidden void @_ZNSt8__detail15_Hashtable_baseIN2cv6GShapeESt4pairIKS2_iENS_10_Select1stESt8equal_toIS2_ESt4hashIS2_ENS_18_Mod_range_hashingENS_20_Default_ranged_hashENS_17_Hashtable_traitsILb1ELb0ELb1EEEEC2Ev(ptr noundef nonnull align 1 dereferenceable(1) %0) unnamed_addr #8 comdat align 2 {
  %2 = alloca ptr, align 8
  store ptr %0, ptr %2, align 8, !tbaa !399
  %3 = load ptr, ptr %2, align 8
  call void @_ZNSt8__detail15_Hash_code_baseIN2cv6GShapeESt4pairIKS2_iENS_10_Select1stESt4hashIS2_ENS_18_Mod_range_hashingENS_20_Default_ranged_hashELb1EEC2Ev(ptr noundef nonnull align 1 dereferenceable(1) %3) #3
  call void @_ZNSt8__detail21_Hashtable_ebo_helperILi0ESt8equal_toIN2cv6GShapeEELb1EEC2Ev(ptr noundef nonnull align 1 dereferenceable(1) %3) #3
  ret void
}

; Function Attrs: mustprogress nounwind uwtable
define linkonce_odr hidden noundef nonnull align 8 dereferenceable(8) ptr @_ZNKSt5arrayIN3ade7details10MetadataIdELm23EEixEm(ptr noundef nonnull align 8 dereferenceable(184) %0, i64 noundef %1) #8 comdat align 2 {
  %3 = alloca ptr, align 8
  %4 = alloca i64, align 8
  store ptr %0, ptr %3, align 8, !tbaa !590
  store i64 %1, ptr %4, align 8, !tbaa !92
  %5 = load ptr, ptr %3, align 8
  %6 = getelementptr inbounds nuw %"struct.std::array", ptr %5, i32 0, i32 0
  %7 = load i64, ptr %4, align 8, !tbaa !92
  %8 = call noundef nonnull align 8 dereferenceable(8) ptr @_ZNSt14__array_traitsIN3ade7details10MetadataIdELm23EE6_S_refERA23_KS2_m(ptr noundef nonnull align 8 dereferenceable(184) %6, i64 noundef %7) #3
  ret ptr %8
}

; Function Attrs: mustprogress nounwind uwtable
define linkonce_odr hidden void @_ZNSt10_HashtableIN2cv6GShapeESt4pairIKS1_iESaIS4_ENSt8__detail10_Select1stESt8equal_toIS1_ESt4hashIS1_ENS6_18_Mod_range_hashingENS6_20_Default_ranged_hashENS6_20_Prime_rehash_policyENS6_17_Hashtable_traitsILb1ELb0ELb1EEEEC2Ev(ptr noundef nonnull align 8 dereferenceable(56) %0) unnamed_addr #8 comdat align 2 {
  %2 = alloca ptr, align 8
  store ptr %0, ptr %2, align 8, !tbaa !349
  %3 = load ptr, ptr %2, align 8
  call void @_ZNSt8__detail15_Hashtable_baseIN2cv6GShapeESt4pairIKS2_iENS_10_Select1stESt8equal_toIS2_ESt4hashIS2_ENS_18_Mod_range_hashingENS_20_Default_ranged_hashENS_17_Hashtable_traitsILb1ELb0ELb1EEEEC2Ev(ptr noundef nonnull align 1 dereferenceable(1) %3) #3
  call void @_ZNSt8__detail16_Hashtable_allocISaINS_10_Hash_nodeISt4pairIKN2cv6GShapeEiELb1EEEEEC2Ev(ptr noundef nonnull align 1 dereferenceable(1) %3) #3
  %4 = getelementptr inbounds nuw %"class.std::_Hashtable", ptr %3, i32 0, i32 0
  %5 = getelementptr inbounds nuw %"class.std::_Hashtable", ptr %3, i32 0, i32 5
  store ptr %5, ptr %4, align 8, !tbaa !397
  %6 = getelementptr inbounds nuw %"class.std::_Hashtable", ptr %3, i32 0, i32 1
  store i64 1, ptr %6, align 8, !tbaa !358
  %7 = getelementptr inbounds nuw %"class.std::_Hashtable", ptr %3, i32 0, i32 2
  call void @_ZNSt8__detail15_Hash_node_baseC2Ev(ptr noundef nonnull align 8 dereferenceable(8) %7) #3
  %8 = getelementptr inbounds nuw %"class.std::_Hashtable", ptr %3, i32 0, i32 3
  store i64 0, ptr %8, align 8, !tbaa !379
  %9 = getelementptr inbounds nuw %"class.std::_Hashtable", ptr %3, i32 0, i32 4
  call void @_ZNSt8__detail20_Prime_rehash_policyC2Ef(ptr noundef nonnull align 8 dereferenceable(16) %9, float noundef 1.000000e+00) #3
  %10 = getelementptr inbounds nuw %"class.std::_Hashtable", ptr %3, i32 0, i32 5
  store ptr null, ptr %10, align 8, !tbaa !438
  ret void
}

; Function Attrs: mustprogress nounwind uwtable
define linkonce_odr hidden ptr @_ZNK3ade13TypedMetadataILb0EJN2cv5gimpl8NodeTypeENS2_5InputENS2_6OutputENS2_2OpENS2_4DataENS2_10ConstValueENS2_6IslandENS2_8ProtocolENS2_17OriginalInputMetaENS2_10OutputMetaENS2_7JournalENS_6passes19TopologicalSortDataENS2_17DataObjectCounterENS2_11IslandModelENS2_14ActiveBackendsENS2_18CustomMetaFunctionENS2_9StreamingENS2_12DeserializedENS2_13HasIntrinsicsENS2_10DesyncPathENS2_10DesyncEdgeENS2_14DesynchronizedENS2_11CompileArgsEEE5getIdISG_EENS_7details10MetadataIdEv(ptr noundef nonnull align 8 dereferenceable(16) %0) #8 comdat align 2 {
  %2 = alloca %"class.ade::details::MetadataId", align 8
  %3 = alloca ptr, align 8
  %4 = alloca i64, align 8
  store ptr %0, ptr %3, align 8, !tbaa !21
  %5 = load ptr, ptr %3, align 8
  call void @llvm.lifetime.start.p0(i64 8, ptr %4) #3
  store i64 12, ptr %4, align 8, !tbaa !92
  %6 = getelementptr inbounds nuw %"class.ade::TypedMetadata", ptr %5, i32 0, i32 0
  %7 = load ptr, ptr %6, align 8, !tbaa !655
  %8 = call noundef nonnull align 8 dereferenceable(8) ptr @_ZNKSt5arrayIN3ade7details10MetadataIdELm23EEixEm(ptr noundef nonnull align 8 dereferenceable(184) %7, i64 noundef 12) #3
  call void @llvm.memcpy.p0.p0.i64(ptr align 8 %2, ptr align 8 %8, i64 8, i1 false), !tbaa.struct !246
  call void @llvm.lifetime.end.p0(i64 8, ptr %4) #3
  %9 = getelementptr inbounds nuw %"class.ade::details::MetadataId", ptr %2, i32 0, i32 0
  %10 = load ptr, ptr %9, align 8
  ret ptr %10
}

; Function Attrs: mustprogress nounwind uwtable
define linkonce_odr hidden void @_ZNSt13unordered_mapIN2cv6GShapeEiSt4hashIS1_ESt8equal_toIS1_ESaISt4pairIKS1_iEEEC2Ev(ptr noundef nonnull align 8 dereferenceable(56) %0) unnamed_addr #8 comdat align 2 {
  %2 = alloca ptr, align 8
  store ptr %0, ptr %2, align 8, !tbaa !345
  %3 = load ptr, ptr %2, align 8
  %4 = getelementptr inbounds nuw %"class.std::unordered_map", ptr %3, i32 0, i32 0
  call void @_ZNSt10_HashtableIN2cv6GShapeESt4pairIKS1_iESaIS4_ENSt8__detail10_Select1stESt8equal_toIS1_ESt4hashIS1_ENS6_18_Mod_range_hashingENS6_20_Default_ranged_hashENS6_20_Prime_rehash_policyENS6_17_Hashtable_traitsILb1ELb0ELb1EEEEC2Ev(ptr noundef nonnull align 8 dereferenceable(56) %4) #3
  ret void
}

; Function Attrs: mustprogress nounwind uwtable
define linkonce_odr hidden void @_ZN3ade13TypedMetadataILb0EJN2cv5gimpl8NodeTypeENS2_5InputENS2_6OutputENS2_2OpENS2_4DataENS2_10ConstValueENS2_6IslandENS2_8ProtocolENS2_17OriginalInputMetaENS2_10OutputMetaENS2_7JournalENS_6passes19TopologicalSortDataENS2_17DataObjectCounterENS2_11IslandModelENS2_14ActiveBackendsENS2_18CustomMetaFunctionENS2_9StreamingENS2_12DeserializedENS2_13HasIntrinsicsENS2_10DesyncPathENS2_10DesyncEdgeENS2_14DesynchronizedENS2_11CompileArgsEEEC2ERKSt5arrayINS_7details10MetadataIdELm23EERNST_8MetadataE(ptr noundef nonnull align 8 dereferenceable(16) %0, ptr noundef nonnull align 8 dereferenceable(184) %1, ptr noundef nonnull align 8 dereferenceable(64) %2) unnamed_addr #8 comdat align 2 {
  %4 = alloca ptr, align 8
  %5 = alloca ptr, align 8
  %6 = alloca ptr, align 8
  store ptr %0, ptr %4, align 8, !tbaa !21
  store ptr %1, ptr %5, align 8, !tbaa !590
  store ptr %2, ptr %6, align 8, !tbaa !591
  %7 = load ptr, ptr %4, align 8
  %8 = getelementptr inbounds nuw %"class.ade::TypedMetadata", ptr %7, i32 0, i32 0
  %9 = load ptr, ptr %5, align 8, !tbaa !590
  store ptr %9, ptr %8, align 8, !tbaa !590
  %10 = getelementptr inbounds nuw %"class.ade::TypedMetadata", ptr %7, i32 0, i32 1
  %11 = load ptr, ptr %6, align 8, !tbaa !591
  store ptr %11, ptr %10, align 8, !tbaa !591
  ret void
}

; Function Attrs: mustprogress nounwind uwtable
define linkonce_odr hidden noundef nonnull align 8 dereferenceable(168) ptr @_ZNK3ade10TypedGraphIJN2cv5gimpl8NodeTypeENS2_5InputENS2_6OutputENS2_2OpENS2_4DataENS2_10ConstValueENS2_6IslandENS2_8ProtocolENS2_17OriginalInputMetaENS2_10OutputMetaENS2_7JournalENS_6passes19TopologicalSortDataENS2_17DataObjectCounterENS2_11IslandModelENS2_14ActiveBackendsENS2_18CustomMetaFunctionENS2_9StreamingENS2_12DeserializedENS2_13HasIntrinsicsENS2_10DesyncPathENS2_10DesyncEdgeENS2_14DesynchronizedENS2_11CompileArgsEEE8getGraphEv(ptr noundef nonnull align 8 dereferenceable(192) %0) #8 comdat align 2 {
  %2 = alloca ptr, align 8
  store ptr %0, ptr %2, align 8, !tbaa !3
  %3 = load ptr, ptr %2, align 8
  %4 = getelementptr inbounds nuw %"class.ade::ConstTypedGraph", ptr %3, i32 0, i32 0
  %5 = load i64, ptr %4, align 8, !tbaa !587
  %6 = inttoptr i64 %5 to ptr
  ret ptr %6
}

; Function Attrs: mustprogress uwtable
define linkonce_odr hidden void @_ZN3ade13TypedMetadataILb0EJN2cv5gimpl8NodeTypeENS2_5InputENS2_6OutputENS2_2OpENS2_4DataENS2_10ConstValueENS2_6IslandENS2_8ProtocolENS2_17OriginalInputMetaENS2_10OutputMetaENS2_7JournalENS_6passes19TopologicalSortDataENS2_17DataObjectCounterENS2_11IslandModelENS2_14ActiveBackendsENS2_18CustomMetaFunctionENS2_9StreamingENS2_12DeserializedENS2_13HasIntrinsicsENS2_10DesyncPathENS2_10DesyncEdgeENS2_14DesynchronizedENS2_11CompileArgsEEE3setISG_EEvOT_(ptr noundef nonnull align 8 dereferenceable(16) %0, ptr noundef nonnull align 8 dereferenceable(56) %1) #4 comdat align 2 {
  %3 = alloca ptr, align 8
  %4 = alloca ptr, align 8
  %5 = alloca %"class.ade::details::MetadataId", align 8
  store ptr %0, ptr %3, align 8, !tbaa !21
  store ptr %1, ptr %4, align 8, !tbaa !75
  %6 = load ptr, ptr %3, align 8
  %7 = getelementptr inbounds nuw %"class.ade::TypedMetadata", ptr %6, i32 0, i32 1
  %8 = load ptr, ptr %7, align 8, !tbaa !25
  call void @llvm.lifetime.start.p0(i64 8, ptr %5) #3
  %9 = call ptr @_ZNK3ade13TypedMetadataILb0EJN2cv5gimpl8NodeTypeENS2_5InputENS2_6OutputENS2_2OpENS2_4DataENS2_10ConstValueENS2_6IslandENS2_8ProtocolENS2_17OriginalInputMetaENS2_10OutputMetaENS2_7JournalENS_6passes19TopologicalSortDataENS2_17DataObjectCounterENS2_11IslandModelENS2_14ActiveBackendsENS2_18CustomMetaFunctionENS2_9StreamingENS2_12DeserializedENS2_13HasIntrinsicsENS2_10DesyncPathENS2_10DesyncEdgeENS2_14DesynchronizedENS2_11CompileArgsEEE5getIdISG_EENS_7details10MetadataIdEv(ptr noundef nonnull align 8 dereferenceable(16) %6)
  %10 = getelementptr inbounds nuw %"class.ade::details::MetadataId", ptr %5, i32 0, i32 0
  store ptr %9, ptr %10, align 8
  %11 = load ptr, ptr %4, align 8, !tbaa !75
  call void @_ZN3ade7details8Metadata3setIN2cv5gimpl17DataObjectCounterEEEvRKNS0_10MetadataIdEOT_(ptr noundef nonnull align 8 dereferenceable(64) %8, ptr noundef nonnull align 8 dereferenceable(8) %5, ptr noundef nonnull align 8 dereferenceable(56) %11)
  call void @llvm.lifetime.end.p0(i64 8, ptr %5) #3
  ret void
}

; Function Attrs: inlinehint mustprogress nounwind uwtable
define linkonce_odr hidden void @_ZN2cv5gimpl17DataObjectCounterC2Ev(ptr noundef nonnull align 8 dereferenceable(56) %0) unnamed_addr #9 comdat align 2 {
  %2 = alloca ptr, align 8
  store ptr %0, ptr %2, align 8, !tbaa !75
  %3 = load ptr, ptr %2, align 8
  %4 = getelementptr inbounds nuw %"class.cv::gimpl::DataObjectCounter", ptr %3, i32 0, i32 0
  call void @_ZNSt13unordered_mapIN2cv6GShapeEiSt4hashIS1_ESt8equal_toIS1_ESaISt4pairIKS1_iEEEC2Ev(ptr noundef nonnull align 8 dereferenceable(56) %4) #3
  ret void
}

; Function Attrs: mustprogress uwtable
define linkonce_odr hidden void @_ZN3ade10TypedGraphIJN2cv5gimpl8NodeTypeENS2_5InputENS2_6OutputENS2_2OpENS2_4DataENS2_10ConstValueENS2_6IslandENS2_8ProtocolENS2_17OriginalInputMetaENS2_10OutputMetaENS2_7JournalENS_6passes19TopologicalSortDataENS2_17DataObjectCounterENS2_11IslandModelENS2_14ActiveBackendsENS2_18CustomMetaFunctionENS2_9StreamingENS2_12DeserializedENS2_13HasIntrinsicsENS2_10DesyncPathENS2_10DesyncEdgeENS2_14DesynchronizedENS2_11CompileArgsEEE8metadataEv(ptr dead_on_unwind noalias writable sret(%"class.ade::TypedMetadata") align 8 %0, ptr noundef nonnull align 8 dereferenceable(192) %1) #4 comdat align 2 {
  %3 = alloca ptr, align 8
  %4 = alloca ptr, align 8
  store ptr %0, ptr %3, align 8
  store ptr %1, ptr %4, align 8, !tbaa !3
  %5 = load ptr, ptr %4, align 8
  %6 = getelementptr inbounds nuw %"class.ade::ConstTypedGraph", ptr %5, i32 0, i32 1
  %7 = call noundef nonnull align 8 dereferenceable(168) ptr @_ZNK3ade10TypedGraphIJN2cv5gimpl8NodeTypeENS2_5InputENS2_6OutputENS2_2OpENS2_4DataENS2_10ConstValueENS2_6IslandENS2_8ProtocolENS2_17OriginalInputMetaENS2_10OutputMetaENS2_7JournalENS_6passes19TopologicalSortDataENS2_17DataObjectCounterENS2_11IslandModelENS2_14ActiveBackendsENS2_18CustomMetaFunctionENS2_9StreamingENS2_12DeserializedENS2_13HasIntrinsicsENS2_10DesyncPathENS2_10DesyncEdgeENS2_14DesynchronizedENS2_11CompileArgsEEE8getGraphEv(ptr noundef nonnull align 8 dereferenceable(192) %5)
  %8 = call noundef nonnull align 8 dereferenceable(64) ptr @_ZN3ade5Graph8metadataEv(ptr noundef nonnull align 8 dereferenceable(168) %7)
  call void @_ZN3ade13TypedMetadataILb0EJN2cv5gimpl8NodeTypeENS2_5InputENS2_6OutputENS2_2OpENS2_4DataENS2_10ConstValueENS2_6IslandENS2_8ProtocolENS2_17OriginalInputMetaENS2_10OutputMetaENS2_7JournalENS_6passes19TopologicalSortDataENS2_17DataObjectCounterENS2_11IslandModelENS2_14ActiveBackendsENS2_18CustomMetaFunctionENS2_9StreamingENS2_12DeserializedENS2_13HasIntrinsicsENS2_10DesyncPathENS2_10DesyncEdgeENS2_14DesynchronizedENS2_11CompileArgsEEEC2ERKSt5arrayINS_7details10MetadataIdELm23EERNST_8MetadataE(ptr noundef nonnull align 8 dereferenceable(16) %0, ptr noundef nonnull align 8 dereferenceable(184) %6, ptr noundef nonnull align 8 dereferenceable(64) %8)
  ret void
}

; Function Attrs: mustprogress uwtable
define void @_ZN2cv5gimpl6GModel4initERN3ade10TypedGraphIJNS0_8NodeTypeENS0_5InputENS0_6OutputENS0_2OpENS0_4DataENS0_10ConstValueENS0_6IslandENS0_8ProtocolENS0_17OriginalInputMetaENS0_10OutputMetaENS0_7JournalENS2_6passes19TopologicalSortDataENS0_17DataObjectCounterENS0_11IslandModelENS0_14ActiveBackendsENS0_18CustomMetaFunctionENS0_9StreamingENS0_12DeserializedENS0_13HasIntrinsicsENS0_10DesyncPathENS0_10DesyncEdgeENS0_14DesynchronizedENS0_11CompileArgsEEEE(ptr noundef nonnull align 8 dereferenceable(192) %0) #4 personality ptr @__gxx_personality_v0 {
  %2 = alloca ptr, align 8
  %3 = alloca %"class.ade::TypedMetadata", align 8
  %4 = alloca %"class.cv::gimpl::DataObjectCounter", align 8
  %5 = alloca ptr, align 8
  %6 = alloca i32, align 4
  store ptr %0, ptr %2, align 8, !tbaa !3
  call void @llvm.lifetime.start.p0(i64 16, ptr %3) #3
  %7 = load ptr, ptr %2, align 8, !tbaa !3
  call void @_ZN3ade10TypedGraphIJN2cv5gimpl8NodeTypeENS2_5InputENS2_6OutputENS2_2OpENS2_4DataENS2_10ConstValueENS2_6IslandENS2_8ProtocolENS2_17OriginalInputMetaENS2_10OutputMetaENS2_7JournalENS_6passes19TopologicalSortDataENS2_17DataObjectCounterENS2_11IslandModelENS2_14ActiveBackendsENS2_18CustomMetaFunctionENS2_9StreamingENS2_12DeserializedENS2_13HasIntrinsicsENS2_10DesyncPathENS2_10DesyncEdgeENS2_14DesynchronizedENS2_11CompileArgsEEE8metadataEv(ptr dead_on_unwind writable sret(%"class.ade::TypedMetadata") align 8 %3, ptr noundef nonnull align 8 dereferenceable(192) %7)
  call void @llvm.lifetime.start.p0(i64 56, ptr %4) #3
  call void @llvm.memset.p0.i64(ptr align 8 %4, i8 0, i64 56, i1 false)
  call void @_ZN2cv5gimpl17DataObjectCounterC2Ev(ptr noundef nonnull align 8 dereferenceable(56) %4) #3
  invoke void @_ZN3ade13TypedMetadataILb0EJN2cv5gimpl8NodeTypeENS2_5InputENS2_6OutputENS2_2OpENS2_4DataENS2_10ConstValueENS2_6IslandENS2_8ProtocolENS2_17OriginalInputMetaENS2_10OutputMetaENS2_7JournalENS_6passes19TopologicalSortDataENS2_17DataObjectCounterENS2_11IslandModelENS2_14ActiveBackendsENS2_18CustomMetaFunctionENS2_9StreamingENS2_12DeserializedENS2_13HasIntrinsicsENS2_10DesyncPathENS2_10DesyncEdgeENS2_14DesynchronizedENS2_11CompileArgsEEE3setISG_EEvOT_(ptr noundef nonnull align 8 dereferenceable(16) %3, ptr noundef nonnull align 8 dereferenceable(56) %4)
          to label %8 unwind label %9

8:                                                ; preds = %1
  call void @_ZN2cv5gimpl17DataObjectCounterD2Ev(ptr noundef nonnull align 8 dereferenceable(56) %4) #3
  call void @llvm.lifetime.end.p0(i64 56, ptr %4) #3
  call void @llvm.lifetime.end.p0(i64 16, ptr %3) #3
  ret void

9:                                                ; preds = %1
  %10 = landingpad { ptr, i32 }
          cleanup
  %11 = extractvalue { ptr, i32 } %10, 0
  store ptr %11, ptr %5, align 8
  %12 = extractvalue { ptr, i32 } %10, 1
  store i32 %12, ptr %6, align 4
  call void @_ZN2cv5gimpl17DataObjectCounterD2Ev(ptr noundef nonnull align 8 dereferenceable(56) %4) #3
  call void @llvm.lifetime.end.p0(i64 56, ptr %4) #3
  call void @llvm.lifetime.end.p0(i64 16, ptr %3) #3
  br label %13

13:                                               ; preds = %9
  %14 = load ptr, ptr %5, align 8
  %15 = load i32, ptr %6, align 4
  %16 = insertvalue { ptr, i32 } poison, ptr %14, 0
  %17 = insertvalue { ptr, i32 } %16, i32 %15, 1
  resume { ptr, i32 } %17
}