; Function Attrs: mustprogress uwtable
define void @_ZN2cv5gimpl6GModel4initERN3ade10TypedGraphIJNS0_8NodeTypeENS0_5InputENS0_6OutputENS0_2OpENS0_4DataENS0_10ConstValueENS0_6IslandENS0_8ProtocolENS0_17OriginalInputMetaENS0_10OutputMetaENS0_7JournalENS2_6passes19TopologicalSortDataENS0_17DataObjectCounterENS0_11IslandModelENS0_14ActiveBackendsENS0_18CustomMetaFunctionENS0_9StreamingENS0_12DeserializedENS0_13HasIntrinsicsENS0_10DesyncPathENS0_10DesyncEdgeENS0_14DesynchronizedENS0_11CompileArgsEEEE(ptr noundef nonnull readonly align 8 captures(none) dereferenceable(192) %0) local_unnamed_addr #3 personality ptr @__gxx_personality_v0 {
  %2 = alloca %"class.ade::details::MetadataId", align 8
  %3 = alloca %"class.cv::gimpl::DataObjectCounter", align 8
  %4 = load i64, ptr %0, align 8, !tbaa !3, !noalias !329
  %5 = inttoptr i64 %4 to ptr
  %6 = tail call noundef nonnull align 8 dereferenceable(64) ptr @_ZN3ade5Graph8metadataEv(ptr noundef nonnull align 8 dereferenceable(168) %5), !noalias !329
  call void @llvm.lifetime.start.p0(i64 56, ptr nonnull %3) #20
  %7 = getelementptr inbounds nuw i8, ptr %3, i64 32
  store i64 0, ptr %7, align 8
  %8 = getelementptr inbounds nuw i8, ptr %3, i64 48
  store ptr %8, ptr %3, align 8, !tbaa !164
  %9 = getelementptr inbounds nuw i8, ptr %3, i64 8
  store i64 1, ptr %9, align 8, !tbaa !162
  %10 = getelementptr inbounds nuw i8, ptr %3, i64 16
  %11 = getelementptr inbounds nuw i8, ptr %3, i64 32
  call void @llvm.memset.p0.i64(ptr noundef nonnull align 8 dereferenceable(16) %10, i8 0, i64 16, i1 false)
  store float 1.000000e+00, ptr %11, align 8, !tbaa !332
  %12 = getelementptr inbounds nuw i8, ptr %3, i64 40
  call void @llvm.memset.p0.i64(ptr noundef nonnull align 8 dereferenceable(16) %12, i8 0, i64 16, i1 false)
  call void @llvm.lifetime.start.p0(i64 8, ptr nonnull %2) #20
  %13 = getelementptr inbounds nuw i8, ptr %0, i64 104
  %.sroa.0.0.copyload.i.i = load ptr, ptr %13, align 8, !tbaa !27
  store ptr %.sroa.0.0.copyload.i.i, ptr %2, align 8
  invoke void @_ZN3ade7details8Metadata3setIN2cv5gimpl17DataObjectCounterEEEvRKNS0_10MetadataIdEOT_(ptr noundef nonnull align 8 dereferenceable(64) %6, ptr noundef nonnull align 8 dereferenceable(8) %2, ptr noundef nonnull align 8 dereferenceable(56) %3)
          to label %14 unwind label %23

14:                                               ; preds = %1
  call void @llvm.lifetime.end.p0(i64 8, ptr nonnull %2) #20
  %15 = load ptr, ptr %10, align 8, !tbaa !333
  %.not5.i.i.i.i.i = icmp eq ptr %15, null
  br i1 %.not5.i.i.i.i.i, label %_ZNSt10_HashtableIN2cv6GShapeESt4pairIKS1_iESaIS4_ENSt8__detail10_Select1stESt8equal_toIS1_ESt4hashIS1_ENS6_18_Mod_range_hashingENS6_20_Default_ranged_hashENS6_20_Prime_rehash_policyENS6_17_Hashtable_traitsILb1ELb0ELb1EEEE5clearEv.exit.i.i.i, label %.lr.ph.i.i.i.i.i

.lr.ph.i.i.i.i.i:                                 ; preds = %14, %.lr.ph.i.i.i.i.i
  %.06.i.i.i.i.i = phi ptr [ %16, %.lr.ph.i.i.i.i.i ], [ %15, %14 ]
  %16 = load ptr, ptr %.06.i.i.i.i.i, align 8, !tbaa !115
  call void @_ZdlPv(ptr noundef nonnull %.06.i.i.i.i.i) #22
  %.not.i.i.i.i.i = icmp eq ptr %16, null
  br i1 %.not.i.i.i.i.i, label %_ZNSt10_HashtableIN2cv6GShapeESt4pairIKS1_iESaIS4_ENSt8__detail10_Select1stESt8equal_toIS1_ESt4hashIS1_ENS6_18_Mod_range_hashingENS6_20_Default_ranged_hashENS6_20_Prime_rehash_policyENS6_17_Hashtable_traitsILb1ELb0ELb1EEEE5clearEv.exit.i.i.i, label %.lr.ph.i.i.i.i.i, !llvm.loop !334

_ZNSt10_HashtableIN2cv6GShapeESt4pairIKS1_iESaIS4_ENSt8__detail10_Select1stESt8equal_toIS1_ESt4hashIS1_ENS6_18_Mod_range_hashingENS6_20_Default_ranged_hashENS6_20_Prime_rehash_policyENS6_17_Hashtable_traitsILb1ELb0ELb1EEEE5clearEv.exit.i.i.i: ; preds = %.lr.ph.i.i.i.i.i, %14
  %17 = load ptr, ptr %3, align 8, !tbaa !164
  %18 = load i64, ptr %9, align 8, !tbaa !162
  %19 = shl i64 %18, 3
  call void @llvm.memset.p0.i64(ptr align 8 %17, i8 0, i64 %19, i1 false)
  call void @llvm.memset.p0.i64(ptr noundef nonnull align 8 dereferenceable(16) %10, i8 0, i64 16, i1 false)
  %20 = load ptr, ptr %3, align 8, !tbaa !164
  %21 = icmp eq ptr %20, %8
  br i1 %21, label %_ZN2cv5gimpl17DataObjectCounterD2Ev.exit, label %22

22:                                               ; preds = %_ZNSt10_HashtableIN2cv6GShapeESt4pairIKS1_iESaIS4_ENSt8__detail10_Select1stESt8equal_toIS1_ESt4hashIS1_ENS6_18_Mod_range_hashingENS6_20_Default_ranged_hashENS6_20_Prime_rehash_policyENS6_17_Hashtable_traitsILb1ELb0ELb1EEEE5clearEv.exit.i.i.i
  call void @_ZdlPv(ptr noundef %20) #22
  br label %_ZN2cv5gimpl17DataObjectCounterD2Ev.exit

_ZN2cv5gimpl17DataObjectCounterD2Ev.exit:         ; preds = %_ZNSt10_HashtableIN2cv6GShapeESt4pairIKS1_iESaIS4_ENSt8__detail10_Select1stESt8equal_toIS1_ESt4hashIS1_ENS6_18_Mod_range_hashingENS6_20_Default_ranged_hashENS6_20_Prime_rehash_policyENS6_17_Hashtable_traitsILb1ELb0ELb1EEEE5clearEv.exit.i.i.i, %22
  call void @llvm.lifetime.end.p0(i64 56, ptr nonnull %3) #20
  ret void

23:                                               ; preds = %1
  %24 = landingpad { ptr, i32 }
          cleanup
  call void @_ZN2cv5gimpl17DataObjectCounterD2Ev(ptr noundef nonnull align 8 dereferenceable(56) %3) #20
  call void @llvm.lifetime.end.p0(i64 56, ptr nonnull %3) #20
  resume { ptr, i32 } %24
}